target datalayout = "e-m:e-p270:32:32-p271:32:32-p272:64:64-i64:64-f80:128-n8:16:32:64-S128"
target triple = "x86_64-pc-linux-gnu"

@.str = private unnamed_addr constant [3 x i8] c"%d\00", align 1
@.str.1 = private unnamed_addr constant [18 x i8] c"%s %d %d %c %c %d\00", align 1
@.str.2 = private unnamed_addr constant [4 x i8] c"%s\0A\00", align 1
@.str.3 = private unnamed_addr constant [4 x i8] c"%d\0A\00", align 1

; Function Attrs: noinline nounwind uwtable
define dso_local i32 @main() #0 {
  %1 = alloca i32, align 4
  %2 = alloca i32, align 4
  %3 = alloca i32, align 4
  %4 = alloca i32, align 4
  %5 = alloca i32, align 4
  %6 = alloca [100 x i32], align 16
  %7 = alloca [100 x i32], align 16
  %8 = alloca [100 x i32], align 16
  %9 = alloca [100 x [21 x i8]], align 16
  %10 = alloca [100 x i8], align 16
  %11 = alloca [100 x i8], align 16
  %12 = alloca [20 x i8], align 16
  %13 = alloca [100 x i32], align 16
  store i32 0, i32* %1, align 4
  store i32 0, i32* %4, align 4
  %14 = call i32 (i8*, ...) @__isoc99_scanf(i8* getelementptr inbounds ([3 x i8], [3 x i8]* @.str, i64 0, i64 0), i32* %3)
  store i32 0, i32* %2, align 4
  br label %15

15:                                               ; preds = %39, %0
  %16 = load i32, i32* %2, align 4
  %17 = load i32, i32* %3, align 4
  %18 = icmp slt i32 %16, %17
  br i1 %18, label %19, label %42

19:                                               ; preds = %15
  %20 = load i32, i32* %2, align 4
  %21 = sext i32 %20 to i64
  %22 = getelementptr inbounds [100 x [21 x i8]], [100 x [21 x i8]]* %9, i64 0, i64 %21
  %23 = load i32, i32* %2, align 4
  %24 = sext i32 %23 to i64
  %25 = getelementptr inbounds [100 x i32], [100 x i32]* %6, i64 0, i64 %24
  %26 = load i32, i32* %2, align 4
  %27 = sext i32 %26 to i64
  %28 = getelementptr inbounds [100 x i32], [100 x i32]* %7, i64 0, i64 %27
  %29 = load i32, i32* %2, align 4
  %30 = sext i32 %29 to i64
  %31 = getelementptr inbounds [100 x i8], [100 x i8]* %10, i64 0, i64 %30
  %32 = load i32, i32* %2, align 4
  %33 = sext i32 %32 to i64
  %34 = getelementptr inbounds [100 x i8], [100 x i8]* %11, i64 0, i64 %33
  %35 = load i32, i32* %2, align 4
  %36 = sext i32 %35 to i64
  %37 = getelementptr inbounds [100 x i32], [100 x i32]* %8, i64 0, i64 %36
  %38 = call i32 (i8*, ...) @__isoc99_scanf(i8* getelementptr inbounds ([18 x i8], [18 x i8]* @.str.1, i64 0, i64 0), [21 x i8]* %22, i32* %25, i32* %28, i8* %31, i8* %34, i32* %37)
  br label %39

39:                                               ; preds = %19
  %40 = load i32, i32* %2, align 4
  %41 = add nsw i32 %40, 1
  store i32 %41, i32* %2, align 4
  br label %15

42:                                               ; preds = %15
  %43 = bitcast [100 x i32]* %13 to i8*
  call void @llvm.memset.p0i8.i64(i8* align 16 %43, i8 0, i64 400, i1 false)
  store i32 0, i32* %2, align 4
  br label %44

44:                                               ; preds = %135, %42
  %45 = load i32, i32* %2, align 4
  %46 = load i32, i32* %3, align 4
  %47 = icmp slt i32 %45, %46
  br i1 %47, label %48, label %138

48:                                               ; preds = %44
  %49 = load i32, i32* %2, align 4
  %50 = sext i32 %49 to i64
  %51 = getelementptr inbounds [100 x i32], [100 x i32]* %6, i64 0, i64 %50
  %52 = load i32, i32* %51, align 4
  %53 = icmp sgt i32 %52, 80
  br i1 %53, label %54, label %66

54:                                               ; preds = %48
  %55 = load i32, i32* %2, align 4
  %56 = sext i32 %55 to i64
  %57 = getelementptr inbounds [100 x i32], [100 x i32]* %8, i64 0, i64 %56
  %58 = load i32, i32* %57, align 4
  %59 = icmp sge i32 %58, 1
  br i1 %59, label %60, label %66

60:                                               ; preds = %54
  %61 = load i32, i32* %2, align 4
  %62 = sext i32 %61 to i64
  %63 = getelementptr inbounds [100 x i32], [100 x i32]* %13, i64 0, i64 %62
  %64 = load i32, i32* %63, align 4
  %65 = add nsw i32 %64, 8000
  store i32 %65, i32* %63, align 4
  br label %66

66:                                               ; preds = %60, %54, %48
  %67 = load i32, i32* %2, align 4
  %68 = sext i32 %67 to i64
  %69 = getelementptr inbounds [100 x i32], [100 x i32]* %6, i64 0, i64 %68
  %70 = load i32, i32* %69, align 4
  %71 = icmp sgt i32 %70, 85
  br i1 %71, label %72, label %84

72:                                               ; preds = %66
  %73 = load i32, i32* %2, align 4
  %74 = sext i32 %73 to i64
  %75 = getelementptr inbounds [100 x i32], [100 x i32]* %7, i64 0, i64 %74
  %76 = load i32, i32* %75, align 4
  %77 = icmp sgt i32 %76, 80
  br i1 %77, label %78, label %84

78:                                               ; preds = %72
  %79 = load i32, i32* %2, align 4
  %80 = sext i32 %79 to i64
  %81 = getelementptr inbounds [100 x i32], [100 x i32]* %13, i64 0, i64 %80
  %82 = load i32, i32* %81, align 4
  %83 = add nsw i32 %82, 4000
  store i32 %83, i32* %81, align 4
  br label %84

84:                                               ; preds = %78, %72, %66
  %85 = load i32, i32* %2, align 4
  %86 = sext i32 %85 to i64
  %87 = getelementptr inbounds [100 x i32], [100 x i32]* %6, i64 0, i64 %86
  %88 = load i32, i32* %87, align 4
  %89 = icmp sgt i32 %88, 90
  br i1 %89, label %90, label %96

90:                                               ; preds = %84
  %91 = load i32, i32* %2, align 4
  %92 = sext i32 %91 to i64
  %93 = getelementptr inbounds [100 x i32], [100 x i32]* %13, i64 0, i64 %92
  %94 = load i32, i32* %93, align 4
  %95 = add nsw i32 %94, 2000
  store i32 %95, i32* %93, align 4
  br label %96

96:                                               ; preds = %90, %84
  %97 = load i32, i32* %2, align 4
  %98 = sext i32 %97 to i64
  %99 = getelementptr inbounds [100 x i32], [100 x i32]* %6, i64 0, i64 %98
  %100 = load i32, i32* %99, align 4
  %101 = icmp sgt i32 %100, 85
  br i1 %101, label %102, label %115

102:                                              ; preds = %96
  %103 = load i32, i32* %2, align 4
  %104 = sext i32 %103 to i64
  %105 = getelementptr inbounds [100 x i8], [100 x i8]* %11, i64 0, i64 %104
  %106 = load i8, i8* %105, align 1
  %107 = sext i8 %106 to i32
  %108 = icmp eq i32 %107, 89
  br i1 %108, label %109, label %115

109:                                              ; preds = %102
  %110 = load i32, i32* %2, align 4
  %111 = sext i32 %110 to i64
  %112 = getelementptr inbounds [100 x i32], [100 x i32]* %13, i64 0, i64 %111
  %113 = load i32, i32* %112, align 4
  %114 = add nsw i32 %113, 1000
  store i32 %114, i32* %112, align 4
  br label %115

115:                                              ; preds = %109, %102, %96
  %116 = load i32, i32* %2, align 4
  %117 = sext i32 %116 to i64
  %118 = getelementptr inbounds [100 x i32], [100 x i32]* %7, i64 0, i64 %117
  %119 = load i32, i32* %118, align 4
  %120 = icmp sgt i32 %119, 80
  br i1 %120, label %121, label %134

121:                                              ; preds = %115
  %122 = load i32, i32* %2, align 4
  %123 = sext i32 %122 to i64
  %124 = getelementptr inbounds [100 x i8], [100 x i8]* %10, i64 0, i64 %123
  %125 = load i8, i8* %124, align 1
  %126 = sext i8 %125 to i32
  %127 = icmp eq i32 %126, 89
  br i1 %127, label %128, label %134

128:                                              ; preds = %121
  %129 = load i32, i32* %2, align 4
  %130 = sext i32 %129 to i64
  %131 = getelementptr inbounds [100 x i32], [100 x i32]* %13, i64 0, i64 %130
  %132 = load i32, i32* %131, align 4
  %133 = add nsw i32 %132, 850
  store i32 %133, i32* %131, align 4
  br label %134

134:                                              ; preds = %128, %121, %115
  br label %135

135:                                              ; preds = %134
  %136 = load i32, i32* %2, align 4
  %137 = add nsw i32 %136, 1
  store i32 %137, i32* %2, align 4
  br label %44

138:                                              ; preds = %44
  %139 = getelementptr inbounds [100 x i32], [100 x i32]* %13, i64 0, i64 0
  %140 = load i32, i32* %139, align 16
  store i32 %140, i32* %5, align 4
  store i32 0, i32* %2, align 4
  br label %141

141:                                              ; preds = %164, %138
  %142 = load i32, i32* %2, align 4
  %143 = load i32, i32* %3, align 4
  %144 = icmp slt i32 %142, %143
  br i1 %144, label %145, label %167

145:                                              ; preds = %141
  %146 = load i32, i32* %2, align 4
  %147 = sext i32 %146 to i64
  %148 = getelementptr inbounds [100 x i32], [100 x i32]* %13, i64 0, i64 %147
  %149 = load i32, i32* %148, align 4
  %150 = load i32, i32* %5, align 4
  %151 = icmp sgt i32 %149, %150
  br i1 %151, label %152, label %163

152:                                              ; preds = %145
  %153 = load i32, i32* %2, align 4
  %154 = sext i32 %153 to i64
  %155 = getelementptr inbounds [100 x i32], [100 x i32]* %13, i64 0, i64 %154
  %156 = load i32, i32* %155, align 4
  store i32 %156, i32* %5, align 4
  %157 = getelementptr inbounds [20 x i8], [20 x i8]* %12, i64 0, i64 0
  %158 = load i32, i32* %2, align 4
  %159 = sext i32 %158 to i64
  %160 = getelementptr inbounds [100 x [21 x i8]], [100 x [21 x i8]]* %9, i64 0, i64 %159
  %161 = getelementptr inbounds [21 x i8], [21 x i8]* %160, i64 0, i64 0
  %162 = call i8* @strcpy(i8* %157, i8* %161) #4
  br label %163

163:                                              ; preds = %152, %145
  br label %164

164:                                              ; preds = %163
  %165 = load i32, i32* %2, align 4
  %166 = add nsw i32 %165, 1
  store i32 %166, i32* %2, align 4
  br label %141

167:                                              ; preds = %141
  store i32 0, i32* %2, align 4
  br label %168

168:                                              ; preds = %179, %167
  %169 = load i32, i32* %2, align 4
  %170 = load i32, i32* %3, align 4
  %171 = icmp slt i32 %169, %170
  br i1 %171, label %172, label %182

172:                                              ; preds = %168
  %173 = load i32, i32* %2, align 4
  %174 = sext i32 %173 to i64
  %175 = getelementptr inbounds [100 x i32], [100 x i32]* %13, i64 0, i64 %174
  %176 = load i32, i32* %175, align 4
  %177 = load i32, i32* %4, align 4
  %178 = add nsw i32 %177, %176
  store i32 %178, i32* %4, align 4
  br label %179

179:                                              ; preds = %172
  %180 = load i32, i32* %2, align 4
  %181 = add nsw i32 %180, 1
  store i32 %181, i32* %2, align 4
  br label %168

182:                                              ; preds = %168
  %183 = getelementptr inbounds [20 x i8], [20 x i8]* %12, i64 0, i64 0
  %184 = call i32 (i8*, ...) @printf(i8* getelementptr inbounds ([4 x i8], [4 x i8]* @.str.2, i64 0, i64 0), i8* %183)
  %185 = load i32, i32* %5, align 4
  %186 = call i32 (i8*, ...) @printf(i8* getelementptr inbounds ([4 x i8], [4 x i8]* @.str.3, i64 0, i64 0), i32 %185)
  %187 = load i32, i32* %4, align 4
  %188 = call i32 (i8*, ...) @printf(i8* getelementptr inbounds ([4 x i8], [4 x i8]* @.str.3, i64 0, i64 0), i32 %187)
  ret i32 0
}